target datalayout = "e-m:e-p270:32:32-p271:32:32-p272:64:64-i64:64-i128:128-f80:128-n8:16:32:64-S128"
target triple = "x86_64-pc-linux-gnu"

%struct._zend_array = type { %struct._zend_refcounted_h, %union.anon.1, i32, %union.anon.2, i32, i32, i32, i32, i64, ptr }
%struct._zend_refcounted_h = type { i32, %union.anon.0 }
%union.anon.0 = type { i32 }
%union.anon.1 = type { i32 }
%union.anon.2 = type { ptr }
%struct._zval_struct = type { %union._zend_value, %union.anon.9, %union.anon.12 }
%union._zend_value = type { i64 }
%union.anon.9 = type { i32 }
%union.anon.12 = type { i32 }
%struct._zend_op_array = type { i8, [3 x i8], i32, ptr, ptr, ptr, i32, i32, ptr, ptr, ptr, ptr, i32, ptr, i32, i32, i32, ptr, ptr, ptr, ptr, ptr, i32, i32, ptr, ptr, ptr, i32, i32, i32, i32, ptr, ptr, [6 x ptr] }
%struct.zend_type = type { ptr, i32 }
%struct._zend_string = type { %struct._zend_refcounted_h, i64, i64, [1 x i8] }
%struct._zend_class_entry = type { i8, ptr, %union.anon, i32, i32, i32, i32, ptr, ptr, ptr, %struct._zend_array, %struct._zend_array, %struct._zend_array, ptr, ptr, ptr, ptr, ptr, ptr, ptr, ptr, ptr, ptr, ptr, ptr, ptr, ptr, ptr, ptr, ptr, ptr, ptr, %union.anon.3, ptr, ptr, ptr, ptr, i32, i32, i32, i32, %union.anon.4, ptr, ptr, ptr, ptr, i32, ptr, ptr, %union.anon.5 }
%union.anon = type { ptr }
%union.anon.3 = type { ptr }
%union.anon.4 = type { ptr }
%union.anon.5 = type { %struct.anon.6 }
%struct.anon.6 = type { ptr, i32, i32 }
%struct._Bucket = type { %struct._zval_struct, i64, ptr }
%struct._zend_property_info = type { i32, i32, ptr, ptr, ptr, ptr, %struct.zend_type, ptr, ptr }
%struct.anon.10 = type { i8, i8, %union.anon.11 }
%union.anon.11 = type { i16 }
%struct.anon.13 = type { i8, [3 x i8], i32, ptr, ptr, ptr, i32, i32, ptr, ptr, ptr, ptr, i32, ptr }

@.str.22 = private unnamed_addr constant [74 x i8] c"%s::%s() has #[\\Override] attribute, but no matching parent method exists\00", align 1
@.str.23 = private unnamed_addr constant [1 x i8] zeroinitializer, align 1

; Function Attrs: alwaysinline nounwind uwtable
define internal zeroext i8 @zval_get_type(ptr noundef %0) #3 {
  %2 = alloca ptr, align 8
  store ptr %0, ptr %2, align 8, !tbaa !51
  %3 = load ptr, ptr %2, align 8, !tbaa !51
  %4 = getelementptr inbounds nuw %struct._zval_struct, ptr %3, i32 0, i32 1
  %5 = getelementptr inbounds nuw %struct.anon.10, ptr %4, i32 0, i32 0
  %6 = load i8, ptr %5, align 8, !tbaa !46
  ret i8 %6
}

; Function Attrs: nounwind uwtable
define hidden void @zend_inheritance_check_override(ptr noundef %0) #0 {
  %2 = alloca ptr, align 8
  %3 = alloca ptr, align 8
  %4 = alloca i32, align 4
  %5 = alloca ptr, align 8
  %6 = alloca ptr, align 8
  %7 = alloca ptr, align 8
  %8 = alloca ptr, align 8
  %9 = alloca ptr, align 8
  %10 = alloca ptr, align 8
  %11 = alloca ptr, align 8
  %12 = alloca ptr, align 8
  %13 = alloca ptr, align 8
  %14 = alloca i32, align 4
  store ptr %0, ptr %2, align 8, !tbaa !8
  call void @llvm.lifetime.start.p0(i64 8, ptr %3) #19
  %15 = load ptr, ptr %2, align 8, !tbaa !8
  %16 = getelementptr inbounds nuw %struct._zend_class_entry, ptr %15, i32 0, i32 4
  %17 = load i32, ptr %16, align 4, !tbaa !80
  %18 = and i32 %17, 2
  %19 = icmp ne i32 %18, 0
  br i1 %19, label %20, label %21

20:                                               ; preds = %1
  store i32 1, ptr %4, align 4
  br label %237

21:                                               ; preds = %1
  br label %22

22:                                               ; preds = %21
  call void @llvm.lifetime.start.p0(i64 8, ptr %5) #19
  %23 = load ptr, ptr %2, align 8, !tbaa !8
  %24 = getelementptr inbounds nuw %struct._zend_class_entry, ptr %23, i32 0, i32 10
  store ptr %24, ptr %5, align 8, !tbaa !47
  call void @llvm.lifetime.start.p0(i64 8, ptr %6) #19
  %25 = load ptr, ptr %5, align 8, !tbaa !47
  %26 = getelementptr inbounds nuw %struct._zend_array, ptr %25, i32 0, i32 3
  %27 = load ptr, ptr %26, align 8, !tbaa !46
  %28 = getelementptr inbounds %struct._Bucket, ptr %27, i64 0
  store ptr %28, ptr %6, align 8, !tbaa !48
  call void @llvm.lifetime.start.p0(i64 8, ptr %7) #19
  %29 = load ptr, ptr %5, align 8, !tbaa !47
  %30 = getelementptr inbounds nuw %struct._zend_array, ptr %29, i32 0, i32 3
  %31 = load ptr, ptr %30, align 8, !tbaa !46
  %32 = load ptr, ptr %5, align 8, !tbaa !47
  %33 = getelementptr inbounds nuw %struct._zend_array, ptr %32, i32 0, i32 4
  %34 = load i32, ptr %33, align 8, !tbaa !50
  %35 = zext i32 %34 to i64
  %36 = getelementptr inbounds nuw %struct._Bucket, ptr %31, i64 %35
  store ptr %36, ptr %7, align 8, !tbaa !48
  %37 = load ptr, ptr %5, align 8, !tbaa !47
  %38 = getelementptr inbounds nuw %struct._zend_array, ptr %37, i32 0, i32 1
  %39 = load i32, ptr %38, align 8, !tbaa !46
  %40 = and i32 %39, 4
  %41 = icmp ne i32 %40, 0
  %42 = xor i1 %41, true
  call void @llvm.assume(i1 %42)
  br label %43

43:                                               ; preds = %108, %22
  %44 = load ptr, ptr %6, align 8, !tbaa !48
  %45 = load ptr, ptr %7, align 8, !tbaa !48
  %46 = icmp ne ptr %44, %45
  br i1 %46, label %47, label %111

47:                                               ; preds = %43
  call void @llvm.lifetime.start.p0(i64 8, ptr %8) #19
  %48 = load ptr, ptr %6, align 8, !tbaa !48
  %49 = getelementptr inbounds nuw %struct._Bucket, ptr %48, i32 0, i32 0
  store ptr %49, ptr %8, align 8, !tbaa !51
  %50 = load ptr, ptr %8, align 8, !tbaa !51
  %51 = call zeroext i8 @zval_get_type(ptr noundef %50)
  %52 = zext i8 %51 to i32
  %53 = icmp eq i32 %52, 0
  %54 = xor i1 %53, true
  %55 = xor i1 %54, true
  %56 = zext i1 %55 to i32
  %57 = sext i32 %56 to i64
  %58 = call i64 @llvm.expect.i64(i64 %57, i64 0)
  %59 = icmp ne i64 %58, 0
  br i1 %59, label %60, label %61

60:                                               ; preds = %47
  store i32 6, ptr %4, align 4
  br label %105

61:                                               ; preds = %47
  %62 = load ptr, ptr %8, align 8, !tbaa !51
  %63 = getelementptr inbounds nuw %struct._zval_struct, ptr %62, i32 0, i32 0
  %64 = load ptr, ptr %63, align 8, !tbaa !46
  store ptr %64, ptr %3, align 8, !tbaa !73
  %65 = load ptr, ptr %3, align 8, !tbaa !73
  %66 = getelementptr inbounds nuw %struct.anon.13, ptr %65, i32 0, i32 2
  %67 = load i32, ptr %66, align 4, !tbaa !46
  %68 = and i32 %67, 268435456
  %69 = icmp ne i32 %68, 0
  br i1 %69, label %70, label %104

70:                                               ; preds = %61
  %71 = load ptr, ptr %3, align 8, !tbaa !73
  %72 = load i8, ptr %71, align 8, !tbaa !46
  %73 = zext i8 %72 to i32
  %74 = icmp ne i32 %73, 1
  call void @llvm.assume(i1 %74)
  %75 = load ptr, ptr %3, align 8, !tbaa !73
  %76 = getelementptr inbounds nuw %struct._zend_op_array, ptr %75, i32 0, i32 26
  %77 = load ptr, ptr %76, align 8, !tbaa !46
  %78 = load ptr, ptr %3, align 8, !tbaa !73
  %79 = getelementptr inbounds nuw %struct._zend_op_array, ptr %78, i32 0, i32 27
  %80 = load i32, ptr %79, align 8, !tbaa !46
  %81 = load ptr, ptr %3, align 8, !tbaa !73
  %82 = icmp ne ptr %81, null
  br i1 %82, label %83, label %96

83:                                               ; preds = %70
  %84 = load ptr, ptr %3, align 8, !tbaa !73
  %85 = getelementptr inbounds nuw %struct.anon.13, ptr %84, i32 0, i32 4
  %86 = load ptr, ptr %85, align 8, !tbaa !46
  %87 = icmp ne ptr %86, null
  br i1 %87, label %88, label %96

88:                                               ; preds = %83
  %89 = load ptr, ptr %3, align 8, !tbaa !73
  %90 = getelementptr inbounds nuw %struct.anon.13, ptr %89, i32 0, i32 4
  %91 = load ptr, ptr %90, align 8, !tbaa !46
  %92 = getelementptr inbounds nuw %struct._zend_class_entry, ptr %91, i32 0, i32 1
  %93 = load ptr, ptr %92, align 8, !tbaa !70
  %94 = getelementptr inbounds nuw %struct._zend_string, ptr %93, i32 0, i32 3
  %95 = getelementptr inbounds [1 x i8], ptr %94, i64 0, i64 0
  br label %97

96:                                               ; preds = %83, %70
  br label %97

97:                                               ; preds = %96, %88
  %98 = phi ptr [ %95, %88 ], [ @.str.23, %96 ]
  %99 = load ptr, ptr %3, align 8, !tbaa !73
  %100 = getelementptr inbounds nuw %struct.anon.13, ptr %99, i32 0, i32 3
  %101 = load ptr, ptr %100, align 8, !tbaa !46
  %102 = getelementptr inbounds nuw %struct._zend_string, ptr %101, i32 0, i32 3
  %103 = getelementptr inbounds [1 x i8], ptr %102, i64 0, i64 0
  call void (i32, ptr, i32, ptr, ...) @zend_error_at_noreturn(i32 noundef 64, ptr noundef %77, i32 noundef %80, ptr noundef @.str.22, ptr noundef %98, ptr noundef %103) #21
  unreachable

104:                                              ; preds = %61
  store i32 0, ptr %4, align 4
  br label %105

105:                                              ; preds = %104, %60
  call void @llvm.lifetime.end.p0(i64 8, ptr %8) #19
  %106 = load i32, ptr %4, align 4
  switch i32 %106, label %240 [
    i32 0, label %107
    i32 6, label %108
  ]

107:                                              ; preds = %105
  br label %108

108:                                              ; preds = %107, %105
  %109 = load ptr, ptr %6, align 8, !tbaa !48
  %110 = getelementptr inbounds nuw %struct._Bucket, ptr %109, i32 1
  store ptr %110, ptr %6, align 8, !tbaa !48
  br label %43

111:                                              ; preds = %43
  call void @llvm.lifetime.end.p0(i64 8, ptr %7) #19
  call void @llvm.lifetime.end.p0(i64 8, ptr %6) #19
  call void @llvm.lifetime.end.p0(i64 8, ptr %5) #19
  br label %112

112:                                              ; preds = %111
  br label %113

113:                                              ; preds = %112
  %114 = load ptr, ptr %2, align 8, !tbaa !8
  %115 = getelementptr inbounds nuw %struct._zend_class_entry, ptr %114, i32 0, i32 39
  %116 = load i32, ptr %115, align 8, !tbaa !97
  %117 = icmp ne i32 %116, 0
  br i1 %117, label %118, label %236

118:                                              ; preds = %113
  call void @llvm.lifetime.start.p0(i64 8, ptr %9) #19
  br label %119

119:                                              ; preds = %118
  call void @llvm.lifetime.start.p0(i64 8, ptr %10) #19
  %120 = load ptr, ptr %2, align 8, !tbaa !8
  %121 = getelementptr inbounds nuw %struct._zend_class_entry, ptr %120, i32 0, i32 11
  store ptr %121, ptr %10, align 8, !tbaa !47
  call void @llvm.lifetime.start.p0(i64 8, ptr %11) #19
  %122 = load ptr, ptr %10, align 8, !tbaa !47
  %123 = getelementptr inbounds nuw %struct._zend_array, ptr %122, i32 0, i32 3
  %124 = load ptr, ptr %123, align 8, !tbaa !46
  %125 = getelementptr inbounds %struct._Bucket, ptr %124, i64 0
  store ptr %125, ptr %11, align 8, !tbaa !48
  call void @llvm.lifetime.start.p0(i64 8, ptr %12) #19
  %126 = load ptr, ptr %10, align 8, !tbaa !47
  %127 = getelementptr inbounds nuw %struct._zend_array, ptr %126, i32 0, i32 3
  %128 = load ptr, ptr %127, align 8, !tbaa !46
  %129 = load ptr, ptr %10, align 8, !tbaa !47
  %130 = getelementptr inbounds nuw %struct._zend_array, ptr %129, i32 0, i32 4
  %131 = load i32, ptr %130, align 8, !tbaa !50
  %132 = zext i32 %131 to i64
  %133 = getelementptr inbounds nuw %struct._Bucket, ptr %128, i64 %132
  store ptr %133, ptr %12, align 8, !tbaa !48
  %134 = load ptr, ptr %10, align 8, !tbaa !47
  %135 = getelementptr inbounds nuw %struct._zend_array, ptr %134, i32 0, i32 1
  %136 = load i32, ptr %135, align 8, !tbaa !46
  %137 = and i32 %136, 4
  %138 = icmp ne i32 %137, 0
  %139 = xor i1 %138, true
  call void @llvm.assume(i1 %139)
  br label %140

140:                                              ; preds = %230, %119
  %141 = load ptr, ptr %11, align 8, !tbaa !48
  %142 = load ptr, ptr %12, align 8, !tbaa !48
  %143 = icmp ne ptr %141, %142
  br i1 %143, label %144, label %233

144:                                              ; preds = %140
  call void @llvm.lifetime.start.p0(i64 8, ptr %13) #19
  %145 = load ptr, ptr %11, align 8, !tbaa !48
  %146 = getelementptr inbounds nuw %struct._Bucket, ptr %145, i32 0, i32 0
  store ptr %146, ptr %13, align 8, !tbaa !51
  %147 = load ptr, ptr %13, align 8, !tbaa !51
  %148 = call zeroext i8 @zval_get_type(ptr noundef %147)
  %149 = zext i8 %148 to i32
  %150 = icmp eq i32 %149, 0
  %151 = xor i1 %150, true
  %152 = xor i1 %151, true
  %153 = zext i1 %152 to i32
  %154 = sext i32 %153 to i64
  %155 = call i64 @llvm.expect.i64(i64 %154, i64 0)
  %156 = icmp ne i64 %155, 0
  br i1 %156, label %157, label %158

157:                                              ; preds = %144
  store i32 11, ptr %4, align 4
  br label %227

158:                                              ; preds = %144
  %159 = load ptr, ptr %13, align 8, !tbaa !51
  %160 = getelementptr inbounds nuw %struct._zval_struct, ptr %159, i32 0, i32 0
  %161 = load ptr, ptr %160, align 8, !tbaa !46
  store ptr %161, ptr %9, align 8, !tbaa !52
  %162 = load ptr, ptr %9, align 8, !tbaa !52
  %163 = getelementptr inbounds nuw %struct._zend_property_info, ptr %162, i32 0, i32 8
  %164 = load ptr, ptr %163, align 8, !tbaa !69
  %165 = icmp ne ptr %164, null
  br i1 %165, label %167, label %166

166:                                              ; preds = %158
  store i32 11, ptr %4, align 4
  br label %227

167:                                              ; preds = %158
  call void @llvm.lifetime.start.p0(i64 4, ptr %14) #19
  store i32 0, ptr %14, align 4, !tbaa !4
  br label %168

168:                                              ; preds = %223, %167
  %169 = load i32, ptr %14, align 4, !tbaa !4
  %170 = icmp ult i32 %169, 2
  br i1 %170, label %172, label %171

171:                                              ; preds = %168
  store i32 12, ptr %4, align 4
  call void @llvm.lifetime.end.p0(i64 4, ptr %14) #19
  br label %226

172:                                              ; preds = %168
  %173 = load ptr, ptr %9, align 8, !tbaa !52
  %174 = getelementptr inbounds nuw %struct._zend_property_info, ptr %173, i32 0, i32 8
  %175 = load ptr, ptr %174, align 8, !tbaa !69
  %176 = load i32, ptr %14, align 4, !tbaa !4
  %177 = zext i32 %176 to i64
  %178 = getelementptr inbounds nuw ptr, ptr %175, i64 %177
  %179 = load ptr, ptr %178, align 8, !tbaa !73
  store ptr %179, ptr %3, align 8, !tbaa !73
  %180 = load ptr, ptr %3, align 8, !tbaa !73
  %181 = icmp ne ptr %180, null
  br i1 %181, label %182, label %222

182:                                              ; preds = %172
  %183 = load ptr, ptr %3, align 8, !tbaa !73
  %184 = getelementptr inbounds nuw %struct.anon.13, ptr %183, i32 0, i32 2
  %185 = load i32, ptr %184, align 4, !tbaa !46
  %186 = and i32 %185, 268435456
  %187 = icmp ne i32 %186, 0
  br i1 %187, label %188, label %222

188:                                              ; preds = %182
  %189 = load ptr, ptr %3, align 8, !tbaa !73
  %190 = load i8, ptr %189, align 8, !tbaa !46
  %191 = zext i8 %190 to i32
  %192 = icmp ne i32 %191, 1
  call void @llvm.assume(i1 %192)
  %193 = load ptr, ptr %3, align 8, !tbaa !73
  %194 = getelementptr inbounds nuw %struct._zend_op_array, ptr %193, i32 0, i32 26
  %195 = load ptr, ptr %194, align 8, !tbaa !46
  %196 = load ptr, ptr %3, align 8, !tbaa !73
  %197 = getelementptr inbounds nuw %struct._zend_op_array, ptr %196, i32 0, i32 27
  %198 = load i32, ptr %197, align 8, !tbaa !46
  %199 = load ptr, ptr %3, align 8, !tbaa !73
  %200 = icmp ne ptr %199, null
  br i1 %200, label %201, label %214

201:                                              ; preds = %188
  %202 = load ptr, ptr %3, align 8, !tbaa !73
  %203 = getelementptr inbounds nuw %struct.anon.13, ptr %202, i32 0, i32 4
  %204 = load ptr, ptr %203, align 8, !tbaa !46
  %205 = icmp ne ptr %204, null
  br i1 %205, label %206, label %214

206:                                              ; preds = %201
  %207 = load ptr, ptr %3, align 8, !tbaa !73
  %208 = getelementptr inbounds nuw %struct.anon.13, ptr %207, i32 0, i32 4
  %209 = load ptr, ptr %208, align 8, !tbaa !46
  %210 = getelementptr inbounds nuw %struct._zend_class_entry, ptr %209, i32 0, i32 1
  %211 = load ptr, ptr %210, align 8, !tbaa !70
  %212 = getelementptr inbounds nuw %struct._zend_string, ptr %211, i32 0, i32 3
  %213 = getelementptr inbounds [1 x i8], ptr %212, i64 0, i64 0
  br label %215

214:                                              ; preds = %201, %188
  br label %215

215:                                              ; preds = %214, %206
  %216 = phi ptr [ %213, %206 ], [ @.str.23, %214 ]
  %217 = load ptr, ptr %3, align 8, !tbaa !73
  %218 = getelementptr inbounds nuw %struct.anon.13, ptr %217, i32 0, i32 3
  %219 = load ptr, ptr %218, align 8, !tbaa !46
  %220 = getelementptr inbounds nuw %struct._zend_string, ptr %219, i32 0, i32 3
  %221 = getelementptr inbounds [1 x i8], ptr %220, i64 0, i64 0
  call void (i32, ptr, i32, ptr, ...) @zend_error_at_noreturn(i32 noundef 64, ptr noundef %195, i32 noundef %198, ptr noundef @.str.22, ptr noundef %216, ptr noundef %221) #21
  unreachable

222:                                              ; preds = %182, %172
  br label %223

223:                                              ; preds = %222
  %224 = load i32, ptr %14, align 4, !tbaa !4
  %225 = add i32 %224, 1
  store i32 %225, ptr %14, align 4, !tbaa !4
  br label %168

226:                                              ; preds = %171
  store i32 0, ptr %4, align 4
  br label %227

227:                                              ; preds = %226, %166, %157
  call void @llvm.lifetime.end.p0(i64 8, ptr %13) #19
  %228 = load i32, ptr %4, align 4
  switch i32 %228, label %240 [
    i32 0, label %229
    i32 11, label %230
  ]

229:                                              ; preds = %227
  br label %230

230:                                              ; preds = %229, %227
  %231 = load ptr, ptr %11, align 8, !tbaa !48
  %232 = getelementptr inbounds nuw %struct._Bucket, ptr %231, i32 1
  store ptr %232, ptr %11, align 8, !tbaa !48
  br label %140

233:                                              ; preds = %140
  call void @llvm.lifetime.end.p0(i64 8, ptr %12) #19
  call void @llvm.lifetime.end.p0(i64 8, ptr %11) #19
  call void @llvm.lifetime.end.p0(i64 8, ptr %10) #19
  br label %234

234:                                              ; preds = %233
  br label %235

235:                                              ; preds = %234
  call void @llvm.lifetime.end.p0(i64 8, ptr %9) #19
  br label %236

236:                                              ; preds = %235, %113
  store i32 0, ptr %4, align 4
  br label %237

237:                                              ; preds = %236, %20
  call void @llvm.lifetime.end.p0(i64 8, ptr %3) #19
  %238 = load i32, ptr %4, align 4
  switch i32 %238, label %240 [
    i32 0, label %239
    i32 1, label %239
  ]

239:                                              ; preds = %237, %237
  ret void

240:                                              ; preds = %237, %227, %105
  unreachable
}