; Function Attrs: nounwind uwtable
define hidden void @zend_inheritance_check_override(ptr noundef readonly captures(none) %0) local_unnamed_addr #2 {
  %2 = getelementptr inbounds nuw i8, ptr %0, i64 28
  %3 = load i32, ptr %2, align 4, !tbaa !22
  %4 = and i32 %3, 2
  %.not = icmp eq i32 %4, 0
  br i1 %.not, label %5, label %.loopexit61

5:                                                ; preds = %1
  %6 = getelementptr inbounds nuw i8, ptr %0, i64 80
  %7 = load ptr, ptr %6, align 8, !tbaa !21
  %8 = getelementptr inbounds nuw i8, ptr %0, i64 88
  %9 = load i32, ptr %8, align 8, !tbaa !97
  %10 = zext i32 %9 to i64
  %11 = getelementptr inbounds nuw %struct._Bucket, ptr %7, i64 %10
  %12 = getelementptr inbounds nuw i8, ptr %0, i64 72
  %13 = load i32, ptr %12, align 8, !tbaa !21
  %14 = and i32 %13, 4
  %.not50 = icmp eq i32 %14, 0
  tail call void @llvm.assume(i1 %.not50)
  %.not5163 = icmp eq i32 %9, 0
  br i1 %.not5163, label %._crit_edge, label %.lr.ph

.lr.ph:                                           ; preds = %5, %41
  %.04664 = phi ptr [ %42, %41 ], [ %7, %5 ]
  %15 = getelementptr inbounds nuw i8, ptr %.04664, i64 8
  %16 = load i8, ptr %15, align 8, !tbaa !21
  %17 = icmp eq i8 %16, 0
  br i1 %17, label %41, label %18, !prof !95

18:                                               ; preds = %.lr.ph
  %19 = load ptr, ptr %.04664, align 8, !tbaa !21
  %20 = getelementptr inbounds nuw i8, ptr %19, i64 4
  %21 = load i32, ptr %20, align 4, !tbaa !21
  %22 = and i32 %21, 268435456
  %.not59 = icmp eq i32 %22, 0
  br i1 %.not59, label %41, label %23

23:                                               ; preds = %18
  %24 = load i8, ptr %19, align 8, !tbaa !21
  %25 = icmp ne i8 %24, 1
  tail call void @llvm.assume(i1 %25)
  %26 = getelementptr inbounds nuw i8, ptr %19, i64 168
  %27 = load ptr, ptr %26, align 8, !tbaa !21
  %28 = getelementptr inbounds nuw i8, ptr %19, i64 176
  %29 = load i32, ptr %28, align 8, !tbaa !21
  %30 = getelementptr inbounds nuw i8, ptr %19, i64 16
  %31 = load ptr, ptr %30, align 8, !tbaa !21
  %.not60 = icmp eq ptr %31, null
  br i1 %.not60, label %36, label %32

32:                                               ; preds = %23
  %33 = getelementptr inbounds nuw i8, ptr %31, i64 8
  %34 = load ptr, ptr %33, align 8, !tbaa !37
  %35 = getelementptr inbounds nuw i8, ptr %34, i64 24
  br label %36

36:                                               ; preds = %23, %32
  %37 = phi ptr [ %35, %32 ], [ @.str.23, %23 ]
  %38 = getelementptr inbounds nuw i8, ptr %19, i64 8
  %39 = load ptr, ptr %38, align 8, !tbaa !21
  %40 = getelementptr inbounds nuw i8, ptr %39, i64 24
  tail call void (i32, ptr, i32, ptr, ...) @zend_error_at_noreturn(i32 noundef 64, ptr noundef %27, i32 noundef %29, ptr noundef nonnull @.str.22, ptr noundef nonnull %37, ptr noundef nonnull %40) #19
  unreachable

41:                                               ; preds = %18, %.lr.ph
  %42 = getelementptr inbounds nuw i8, ptr %.04664, i64 32
  %.not51 = icmp eq ptr %42, %11
  br i1 %.not51, label %._crit_edge, label %.lr.ph

._crit_edge:                                      ; preds = %41, %5
  %43 = getelementptr inbounds nuw i8, ptr %0, i64 432
  %44 = load i32, ptr %43, align 8, !tbaa !127
  %.not52 = icmp eq i32 %44, 0
  br i1 %.not52, label %.loopexit61, label %45

45:                                               ; preds = %._crit_edge
  %46 = getelementptr inbounds nuw i8, ptr %0, i64 136
  %47 = load ptr, ptr %46, align 8, !tbaa !21
  %48 = getelementptr inbounds nuw i8, ptr %0, i64 144
  %49 = load i32, ptr %48, align 8, !tbaa !97
  %50 = zext i32 %49 to i64
  %51 = getelementptr inbounds nuw %struct._Bucket, ptr %47, i64 %50
  %52 = getelementptr inbounds nuw i8, ptr %0, i64 128
  %53 = load i32, ptr %52, align 8, !tbaa !21
  %54 = and i32 %53, 4
  %.not53 = icmp eq i32 %54, 0
  tail call void @llvm.assume(i1 %.not53)
  %.not5466 = icmp eq i32 %49, 0
  br i1 %.not5466, label %.loopexit61, label %.lr.ph69

.lr.ph69:                                         ; preds = %45, %.loopexit
  %.04567 = phi ptr [ %88, %.loopexit ], [ %47, %45 ]
  %55 = getelementptr inbounds nuw i8, ptr %.04567, i64 8
  %56 = load i8, ptr %55, align 8, !tbaa !21
  %57 = icmp eq i8 %56, 0
  br i1 %57, label %.loopexit, label %58, !prof !95

58:                                               ; preds = %.lr.ph69
  %59 = load ptr, ptr %.04567, align 8, !tbaa !21
  %60 = getelementptr inbounds nuw i8, ptr %59, i64 64
  %61 = load ptr, ptr %60, align 8, !tbaa !105
  %.not55 = icmp eq ptr %61, null
  br i1 %.not55, label %.loopexit, label %.preheader

.preheader:                                       ; preds = %58, %87
  %62 = phi i1 [ false, %87 ], [ true, %58 ]
  %indvars.iv = phi i64 [ 1, %87 ], [ 0, %58 ]
  %63 = getelementptr inbounds nuw ptr, ptr %61, i64 %indvars.iv
  %64 = load ptr, ptr %63, align 8, !tbaa !108
  %.not56 = icmp eq ptr %64, null
  br i1 %.not56, label %87, label %65

65:                                               ; preds = %.preheader
  %66 = getelementptr inbounds nuw i8, ptr %64, i64 4
  %67 = load i32, ptr %66, align 4, !tbaa !21
  %68 = and i32 %67, 268435456
  %.not57 = icmp eq i32 %68, 0
  br i1 %.not57, label %87, label %69

69:                                               ; preds = %65
  %70 = load i8, ptr %64, align 8, !tbaa !21
  %71 = icmp ne i8 %70, 1
  tail call void @llvm.assume(i1 %71)
  %72 = getelementptr inbounds nuw i8, ptr %64, i64 168
  %73 = load ptr, ptr %72, align 8, !tbaa !21
  %74 = getelementptr inbounds nuw i8, ptr %64, i64 176
  %75 = load i32, ptr %74, align 8, !tbaa !21
  %76 = getelementptr inbounds nuw i8, ptr %64, i64 16
  %77 = load ptr, ptr %76, align 8, !tbaa !21
  %.not58 = icmp eq ptr %77, null
  br i1 %.not58, label %82, label %78

78:                                               ; preds = %69
  %79 = getelementptr inbounds nuw i8, ptr %77, i64 8
  %80 = load ptr, ptr %79, align 8, !tbaa !37
  %81 = getelementptr inbounds nuw i8, ptr %80, i64 24
  br label %82

82:                                               ; preds = %69, %78
  %83 = phi ptr [ %81, %78 ], [ @.str.23, %69 ]
  %84 = getelementptr inbounds nuw i8, ptr %64, i64 8
  %85 = load ptr, ptr %84, align 8, !tbaa !21
  %86 = getelementptr inbounds nuw i8, ptr %85, i64 24
  tail call void (i32, ptr, i32, ptr, ...) @zend_error_at_noreturn(i32 noundef 64, ptr noundef %73, i32 noundef %75, ptr noundef nonnull @.str.22, ptr noundef nonnull %83, ptr noundef nonnull %86) #19
  unreachable

87:                                               ; preds = %.preheader, %65
  br i1 %62, label %.preheader, label %.loopexit

.loopexit:                                        ; preds = %87, %58, %.lr.ph69
  %88 = getelementptr inbounds nuw i8, ptr %.04567, i64 32
  %.not54 = icmp eq ptr %88, %51
  br i1 %.not54, label %.loopexit61, label %.lr.ph69

.loopexit61:                                      ; preds = %.loopexit, %45, %._crit_edge, %1
  ret void
}